target datalayout = "e-m:e-p270:32:32-p271:32:32-p272:64:64-i64:64-i128:128-f80:128-n8:16:32:64-S128"
target triple = "x86_64-pc-linux-gnu"

%"class.cv::WBaseStream" = type { ptr, ptr, ptr, ptr, i32, i32, ptr, i8, ptr }

; Function Attrs: mustprogress uwtable
define hidden noundef zeroext i1 @_ZN2cv12WLByteStream7putByteEi(ptr noundef nonnull align 8 dereferenceable(64) %0, i32 noundef %1) #1 align 2 {
  %3 = alloca i1, align 1
  %4 = alloca ptr, align 8
  %5 = alloca i32, align 4
  store ptr %0, ptr %4, align 8, !tbaa !75
  store i32 %1, ptr %5, align 4, !tbaa !27
  %6 = load ptr, ptr %4, align 8
  %7 = load i32, ptr %5, align 4, !tbaa !27
  %8 = trunc i32 %7 to i8
  %9 = getelementptr inbounds nuw %"class.cv::WBaseStream", ptr %6, i32 0, i32 3
  %10 = load ptr, ptr %9, align 8, !tbaa !61
  %11 = getelementptr inbounds nuw i8, ptr %10, i32 1
  store ptr %11, ptr %9, align 8, !tbaa !61
  store i8 %8, ptr %10, align 1, !tbaa !52
  %12 = getelementptr inbounds nuw %"class.cv::WBaseStream", ptr %6, i32 0, i32 3
  %13 = load ptr, ptr %12, align 8, !tbaa !61
  %14 = getelementptr inbounds nuw %"class.cv::WBaseStream", ptr %6, i32 0, i32 2
  %15 = load ptr, ptr %14, align 8, !tbaa !64
  %16 = icmp uge ptr %13, %15
  br i1 %16, label %17, label %22

17:                                               ; preds = %2
  %18 = load ptr, ptr %6, align 8, !tbaa !21
  %19 = getelementptr inbounds ptr, ptr %18, i64 5
  %20 = load ptr, ptr %19, align 8
  %21 = call noundef zeroext i1 %20(ptr noundef nonnull align 8 dereferenceable(64) %6)
  store i1 %21, ptr %3, align 1
  br label %23

22:                                               ; preds = %2
  store i1 true, ptr %3, align 1
  br label %23

23:                                               ; preds = %22, %17
  %24 = load i1, ptr %3, align 1
  ret i1 %24
}

; Function Attrs: mustprogress uwtable
define hidden noundef zeroext i1 @_ZN2cv12WMByteStream7putWordEi(ptr noundef nonnull align 8 dereferenceable(64) %0, i32 noundef %1) #1 align 2 {
  %3 = alloca i1, align 1
  %4 = alloca ptr, align 8
  %5 = alloca i32, align 4
  %6 = alloca ptr, align 8
  %7 = alloca i32, align 4
  store ptr %0, ptr %4, align 8, !tbaa !79
  store i32 %1, ptr %5, align 4, !tbaa !27
  %8 = load ptr, ptr %4, align 8
  call void @llvm.lifetime.start.p0(i64 8, ptr %6) #17
  %9 = getelementptr inbounds nuw %"class.cv::WBaseStream", ptr %8, i32 0, i32 3
  %10 = load ptr, ptr %9, align 8, !tbaa !61
  store ptr %10, ptr %6, align 8, !tbaa !32
  %11 = load ptr, ptr %6, align 8, !tbaa !32
  %12 = getelementptr inbounds i8, ptr %11, i64 1
  %13 = getelementptr inbounds nuw %"class.cv::WBaseStream", ptr %8, i32 0, i32 2
  %14 = load ptr, ptr %13, align 8, !tbaa !64
  %15 = icmp ult ptr %12, %14
  br i1 %15, label %16, label %40

16:                                               ; preds = %2
  %17 = load i32, ptr %5, align 4, !tbaa !27
  %18 = ashr i32 %17, 8
  %19 = trunc i32 %18 to i8
  %20 = load ptr, ptr %6, align 8, !tbaa !32
  %21 = getelementptr inbounds i8, ptr %20, i64 0
  store i8 %19, ptr %21, align 1, !tbaa !52
  %22 = load i32, ptr %5, align 4, !tbaa !27
  %23 = trunc i32 %22 to i8
  %24 = load ptr, ptr %6, align 8, !tbaa !32
  %25 = getelementptr inbounds i8, ptr %24, i64 1
  store i8 %23, ptr %25, align 1, !tbaa !52
  %26 = load ptr, ptr %6, align 8, !tbaa !32
  %27 = getelementptr inbounds i8, ptr %26, i64 2
  %28 = getelementptr inbounds nuw %"class.cv::WBaseStream", ptr %8, i32 0, i32 3
  store ptr %27, ptr %28, align 8, !tbaa !61
  %29 = getelementptr inbounds nuw %"class.cv::WBaseStream", ptr %8, i32 0, i32 3
  %30 = load ptr, ptr %29, align 8, !tbaa !61
  %31 = getelementptr inbounds nuw %"class.cv::WBaseStream", ptr %8, i32 0, i32 2
  %32 = load ptr, ptr %31, align 8, !tbaa !64
  %33 = icmp eq ptr %30, %32
  br i1 %33, label %34, label %39

34:                                               ; preds = %16
  %35 = load ptr, ptr %8, align 8, !tbaa !21
  %36 = getelementptr inbounds ptr, ptr %35, i64 5
  %37 = load ptr, ptr %36, align 8
  %38 = call noundef zeroext i1 %37(ptr noundef nonnull align 8 dereferenceable(64) %8)
  store i1 %38, ptr %3, align 1
  store i32 1, ptr %7, align 4
  br label %47

39:                                               ; preds = %16
  br label %46

40:                                               ; preds = %2
  %41 = load i32, ptr %5, align 4, !tbaa !27
  %42 = ashr i32 %41, 8
  %43 = call noundef zeroext i1 @_ZN2cv12WLByteStream7putByteEi(ptr noundef nonnull align 8 dereferenceable(64) %8, i32 noundef %42)
  %44 = load i32, ptr %5, align 4, !tbaa !27
  %45 = call noundef zeroext i1 @_ZN2cv12WLByteStream7putByteEi(ptr noundef nonnull align 8 dereferenceable(64) %8, i32 noundef %44)
  br label %46

46:                                               ; preds = %40, %39
  store i1 true, ptr %3, align 1
  store i32 1, ptr %7, align 4
  br label %47

47:                                               ; preds = %46, %34
  call void @llvm.lifetime.end.p0(i64 8, ptr %6) #17
  %48 = load i1, ptr %3, align 1
  ret i1 %48
}