; Function Attrs: mustprogress uwtable
define hidden noundef zeroext i1 @_ZN2cv12WMByteStream7putWordEi(ptr noundef nonnull align 8 dereferenceable(64) %0, i32 noundef %1) local_unnamed_addr #1 align 2 {
  %3 = getelementptr inbounds nuw i8, ptr %0, i64 24
  %4 = load ptr, ptr %3, align 8, !tbaa !55
  %5 = getelementptr inbounds nuw i8, ptr %4, i64 1
  %6 = getelementptr inbounds nuw i8, ptr %0, i64 16
  %7 = load ptr, ptr %6, align 8, !tbaa !54
  %8 = icmp ult ptr %5, %7
  %9 = lshr i32 %1, 8
  %10 = trunc i32 %9 to i8
  br i1 %8, label %11, label %21

11:                                               ; preds = %2
  store i8 %10, ptr %4, align 1, !tbaa !42
  %12 = trunc i32 %1 to i8
  store i8 %12, ptr %5, align 1, !tbaa !42
  %13 = getelementptr inbounds nuw i8, ptr %4, i64 2
  store ptr %13, ptr %3, align 8, !tbaa !55
  %14 = load ptr, ptr %6, align 8, !tbaa !54
  %15 = icmp eq ptr %13, %14
  br i1 %15, label %16, label %_ZN2cv12WLByteStream7putByteEi.exit12

16:                                               ; preds = %11
  %17 = load ptr, ptr %0, align 8, !tbaa !19
  %18 = getelementptr inbounds nuw i8, ptr %17, i64 40
  %19 = load ptr, ptr %18, align 8
  %20 = tail call noundef zeroext i1 %19(ptr noundef nonnull align 8 dereferenceable(64) %0)
  br label %_ZN2cv12WLByteStream7putByteEi.exit12

21:                                               ; preds = %2
  store ptr %5, ptr %3, align 8, !tbaa !55
  store i8 %10, ptr %4, align 1, !tbaa !42
  %22 = load ptr, ptr %3, align 8, !tbaa !55
  %23 = load ptr, ptr %6, align 8, !tbaa !54
  %.not.i = icmp ult ptr %22, %23
  br i1 %.not.i, label %_ZN2cv12WLByteStream7putByteEi.exit, label %24

24:                                               ; preds = %21
  %25 = load ptr, ptr %0, align 8, !tbaa !19
  %26 = getelementptr inbounds nuw i8, ptr %25, i64 40
  %27 = load ptr, ptr %26, align 8
  %28 = tail call noundef zeroext i1 %27(ptr noundef nonnull align 8 dereferenceable(64) %0)
  %.pre = load ptr, ptr %3, align 8, !tbaa !55
  br label %_ZN2cv12WLByteStream7putByteEi.exit

_ZN2cv12WLByteStream7putByteEi.exit:              ; preds = %21, %24
  %29 = phi ptr [ %22, %21 ], [ %.pre, %24 ]
  %30 = trunc i32 %1 to i8
  %31 = getelementptr inbounds nuw i8, ptr %29, i64 1
  store ptr %31, ptr %3, align 8, !tbaa !55
  store i8 %30, ptr %29, align 1, !tbaa !42
  %32 = load ptr, ptr %3, align 8, !tbaa !55
  %33 = load ptr, ptr %6, align 8, !tbaa !54
  %.not.i10 = icmp ult ptr %32, %33
  br i1 %.not.i10, label %_ZN2cv12WLByteStream7putByteEi.exit12, label %34

34:                                               ; preds = %_ZN2cv12WLByteStream7putByteEi.exit
  %35 = load ptr, ptr %0, align 8, !tbaa !19
  %36 = getelementptr inbounds nuw i8, ptr %35, i64 40
  %37 = load ptr, ptr %36, align 8
  %38 = tail call noundef zeroext i1 %37(ptr noundef nonnull align 8 dereferenceable(64) %0)
  br label %_ZN2cv12WLByteStream7putByteEi.exit12

_ZN2cv12WLByteStream7putByteEi.exit12:            ; preds = %34, %_ZN2cv12WLByteStream7putByteEi.exit, %11, %16
  %.0 = phi i1 [ %20, %16 ], [ true, %11 ], [ true, %_ZN2cv12WLByteStream7putByteEi.exit ], [ true, %34 ]
  ret i1 %.0
}